target datalayout = "e-m:e-p270:32:32-p271:32:32-p272:64:64-i64:64-i128:128-f80:128-n8:16:32:64-S128"
target triple = "x86_64-unknown-linux-gnu"

%struct.QTailQLink = type { ptr, ptr }
%struct.Object = type { ptr, ptr, ptr, i32, ptr }
%struct.AHCIDevice = type { %struct.IDEDMA, %struct.IDEBus, i32, i32, i32, %struct.AHCIPortRegs, ptr, ptr, ptr, ptr, i8, i32, i8, ptr, [32 x %struct.NCQTransferState], %struct.MemReentrancyGuard }
%struct.IDEDMA = type { ptr, %struct.QEMUIOVector, ptr }
%struct.QEMUIOVector = type { ptr, i32, %union.anon.3 }
%union.anon.3 = type { %struct.anon.4 }
%struct.anon.4 = type { i32, %struct.iovec }
%struct.iovec = type { ptr, i64 }
%struct.IDEBus = type { %struct.BusState, ptr, ptr, [2 x %struct.IDEState], ptr, i32, i32, ptr, i8, i8, ptr, i32, i8, i64, i32, %struct.PortioList, %struct.PortioList, ptr }
%struct.BusState = type { %struct.Object, ptr, ptr, ptr, i32, i8, i8, i32, %union.BusChildHead, %struct.BusStateEntry, %struct.ResettableState }
%union.BusChildHead = type { %struct.QTailQLink }
%struct.BusStateEntry = type { ptr, ptr }
%struct.ResettableState = type { i32, i8, i8 }
%struct.IDEState = type { ptr, i8, i32, i32, i32, i32, i32, i32, i32, i64, i32, i32, [512 x i8], i32, [21 x i8], [41 x i8], i64, i8, i8, i32, i8, i8, i8, i8, i8, i8, i8, i8, i8, i8, i8, i8, i8, ptr, [9 x i8], %struct.unreported_events, i8, i8, i8, i8, i8, i32, i32, i32, i32, i32, i32, %struct.BlockAcctCookie, ptr, %struct.QEMUIOVector, %struct.anon.6, i64, i32, %struct.QEMUSGList, i32, ptr, ptr, ptr, ptr, i32, i32, i32, i8, ptr, i32, i8, i32, ptr, i32, i32, i8, i8, i32, i8, ptr, i32 }
%struct.unreported_events = type { i8, i8 }
%struct.BlockAcctCookie = type { i64, i64, i32 }
%struct.anon.6 = type { ptr }
%struct.QEMUSGList = type { ptr, i32, i32, i64, ptr, ptr }
%struct.PortioList = type { ptr, ptr, ptr, i32, ptr, ptr, ptr, i8 }
%struct.AHCIPortRegs = type { i32, i32, i32, i32, i32, i32, i32, i32, i32, i32, i32, i32, i32, i32, i32, i32 }
%struct.NCQTransferState = type { ptr, ptr, ptr, %struct.QEMUSGList, %struct.BlockAcctCookie, i32, i64, i8, i8, i8, i8, i8 }
%struct.MemReentrancyGuard = type { i8 }
%struct.timeval = type { i64, i64 }

@.str.10 = private unnamed_addr constant [22 x i8] c"../qemu/hw/ide/ahci.c\00", align 1
@trace_events_enabled_count = external global i32, align 4
@message_with_timestamp = external global i8, align 1
@qemu_loglevel = external global i32, align 4
@__func__.ahci_trigger_irq = private unnamed_addr constant [17 x i8] c"ahci_trigger_irq\00", align 1
@.str.83 = private unnamed_addr constant [22 x i8] c"(unsigned)irqbit < 32\00", align 1
@_TRACE_AHCI_TRIGGER_IRQ_DSTATE = external global i16, align 2
@.str.84 = private unnamed_addr constant [117 x i8] c"%d@%zu.%06zu:ahci_trigger_irq ahci(%p)[%d]: trigger irq +%s (0x%08x); irqstat: 0x%08x --> 0x%08x; effective: 0x%08x\0A\00", align 1
@.str.85 = private unnamed_addr constant [104 x i8] c"ahci_trigger_irq ahci(%p)[%d]: trigger irq +%s (0x%08x); irqstat: 0x%08x --> 0x%08x; effective: 0x%08x\0A\00", align 1

; Function Attrs: nounwind sspstrong uwtable
define internal zeroext i1 @qemu_loglevel_mask(i32 noundef %mask) #0 {
entry:
  %mask.addr = alloca i32, align 4
  store i32 %mask, ptr %mask.addr, align 4
  %0 = load i32, ptr @qemu_loglevel, align 4
  %1 = load i32, ptr %mask.addr, align 4
  %and = and i32 %0, %1
  %cmp = icmp ne i32 %and, 0
  ret i1 %cmp
}

; Function Attrs: nounwind sspstrong uwtable
define internal void @_nocheck__trace_ahci_trigger_irq(ptr noundef %s, i32 noundef %port, ptr noundef %name, i32 noundef %val, i32 noundef %old, i32 noundef %new, i32 noundef %effective) #0 {
entry:
  %s.addr = alloca ptr, align 8
  %port.addr = alloca i32, align 4
  %name.addr = alloca ptr, align 8
  %val.addr = alloca i32, align 4
  %old.addr = alloca i32, align 4
  %new.addr = alloca i32, align 4
  %effective.addr = alloca i32, align 4
  %_now = alloca %struct.timeval, align 8
  store ptr %s, ptr %s.addr, align 8
  store i32 %port, ptr %port.addr, align 4
  store ptr %name, ptr %name.addr, align 8
  store i32 %val, ptr %val.addr, align 4
  store i32 %old, ptr %old.addr, align 4
  store i32 %new, ptr %new.addr, align 4
  store i32 %effective, ptr %effective.addr, align 4
  %0 = load i32, ptr @trace_events_enabled_count, align 4
  %tobool = icmp ne i32 %0, 0
  %lnot = xor i1 %tobool, true
  %lnot1 = xor i1 %lnot, true
  %lnot.ext = zext i1 %lnot1 to i32
  %conv = sext i32 %lnot.ext to i64
  %tobool2 = icmp ne i64 %conv, 0
  br i1 %tobool2, label %land.lhs.true, label %if.end11

land.lhs.true:                                    ; preds = %entry
  %1 = load i16, ptr @_TRACE_AHCI_TRIGGER_IRQ_DSTATE, align 2
  %conv3 = zext i16 %1 to i32
  %tobool4 = icmp ne i32 %conv3, 0
  br i1 %tobool4, label %land.lhs.true5, label %if.end11

land.lhs.true5:                                   ; preds = %land.lhs.true
  %call = call zeroext i1 @qemu_loglevel_mask(i32 noundef 32768)
  br i1 %call, label %if.then, label %if.end11

if.then:                                          ; preds = %land.lhs.true5
  %2 = load i8, ptr @message_with_timestamp, align 1
  %tobool7 = trunc i8 %2 to i1
  br i1 %tobool7, label %if.then8, label %if.else

if.then8:                                         ; preds = %if.then
  %call9 = call i32 @gettimeofday(ptr noundef %_now, ptr noundef null) #10
  %call10 = call i32 @qemu_get_thread_id()
  %tv_sec = getelementptr inbounds %struct.timeval, ptr %_now, i32 0, i32 0
  %3 = load i64, ptr %tv_sec, align 8
  %tv_usec = getelementptr inbounds %struct.timeval, ptr %_now, i32 0, i32 1
  %4 = load i64, ptr %tv_usec, align 8
  %5 = load ptr, ptr %s.addr, align 8
  %6 = load i32, ptr %port.addr, align 4
  %7 = load ptr, ptr %name.addr, align 8
  %8 = load i32, ptr %val.addr, align 4
  %9 = load i32, ptr %old.addr, align 4
  %10 = load i32, ptr %new.addr, align 4
  %11 = load i32, ptr %effective.addr, align 4
  call void (ptr, ...) @qemu_log(ptr noundef @.str.84, i32 noundef %call10, i64 noundef %3, i64 noundef %4, ptr noundef %5, i32 noundef %6, ptr noundef %7, i32 noundef %8, i32 noundef %9, i32 noundef %10, i32 noundef %11)
  br label %if.end

if.else:                                          ; preds = %if.then
  %12 = load ptr, ptr %s.addr, align 8
  %13 = load i32, ptr %port.addr, align 4
  %14 = load ptr, ptr %name.addr, align 8
  %15 = load i32, ptr %val.addr, align 4
  %16 = load i32, ptr %old.addr, align 4
  %17 = load i32, ptr %new.addr, align 4
  %18 = load i32, ptr %effective.addr, align 4
  call void (ptr, ...) @qemu_log(ptr noundef @.str.85, ptr noundef %12, i32 noundef %13, ptr noundef %14, i32 noundef %15, i32 noundef %16, i32 noundef %17, i32 noundef %18)
  br label %if.end

if.end:                                           ; preds = %if.else, %if.then8
  br label %if.end11

if.end11:                                         ; preds = %if.end, %land.lhs.true5, %land.lhs.true, %entry
  ret void
}

; Function Attrs: nounwind sspstrong uwtable
define internal void @trace_ahci_trigger_irq(ptr noundef %s, i32 noundef %port, ptr noundef %name, i32 noundef %val, i32 noundef %old, i32 noundef %new, i32 noundef %effective) #0 {
entry:
  %s.addr = alloca ptr, align 8
  %port.addr = alloca i32, align 4
  %name.addr = alloca ptr, align 8
  %val.addr = alloca i32, align 4
  %old.addr = alloca i32, align 4
  %new.addr = alloca i32, align 4
  %effective.addr = alloca i32, align 4
  store ptr %s, ptr %s.addr, align 8
  store i32 %port, ptr %port.addr, align 4
  store ptr %name, ptr %name.addr, align 8
  store i32 %val, ptr %val.addr, align 4
  store i32 %old, ptr %old.addr, align 4
  store i32 %new, ptr %new.addr, align 4
  store i32 %effective, ptr %effective.addr, align 4
  %0 = load ptr, ptr %s.addr, align 8
  %1 = load i32, ptr %port.addr, align 4
  %2 = load ptr, ptr %name.addr, align 8
  %3 = load i32, ptr %val.addr, align 4
  %4 = load i32, ptr %old.addr, align 4
  %5 = load i32, ptr %new.addr, align 4
  %6 = load i32, ptr %effective.addr, align 4
  call void @_nocheck__trace_ahci_trigger_irq(ptr noundef %0, i32 noundef %1, ptr noundef %2, i32 noundef %3, i32 noundef %4, i32 noundef %5, i32 noundef %6)
  ret void
}

; Function Attrs: nounwind sspstrong uwtable
define internal void @ahci_trigger_irq(ptr noundef %s, ptr noundef %d, i32 noundef %irqbit) #0 {
entry:
  %s.addr = alloca ptr, align 8
  %d.addr = alloca ptr, align 8
  %irqbit.addr = alloca i32, align 4
  %irq = alloca i32, align 4
  %irqstat = alloca i32, align 4
  store ptr %s, ptr %s.addr, align 8
  store ptr %d, ptr %d.addr, align 8
  store i32 %irqbit, ptr %irqbit.addr, align 4
  br label %do.body

do.body:                                          ; preds = %entry
  %0 = load i32, ptr %irqbit.addr, align 4
  %cmp = icmp ult i32 %0, 32
  br i1 %cmp, label %if.then, label %if.else

if.then:                                          ; preds = %do.body
  br label %if.end

if.else:                                          ; preds = %do.body
  call void @g_assertion_message_expr(ptr noundef null, ptr noundef @.str.10, i32 noundef 232, ptr noundef @__func__.ahci_trigger_irq, ptr noundef @.str.83) #8
  unreachable

if.end:                                           ; preds = %if.then
  br label %do.end

do.end:                                           ; preds = %if.end
  %1 = load i32, ptr %irqbit.addr, align 4
  %shl = shl i32 1, %1
  store i32 %shl, ptr %irq, align 4
  %2 = load ptr, ptr %d.addr, align 8
  %port_regs = getelementptr inbounds %struct.AHCIDevice, ptr %2, i32 0, i32 5
  %irq_stat = getelementptr inbounds %struct.AHCIPortRegs, ptr %port_regs, i32 0, i32 4
  %3 = load i32, ptr %irq_stat, align 4
  %4 = load i32, ptr %irq, align 4
  %or = or i32 %3, %4
  store i32 %or, ptr %irqstat, align 4
  %5 = load ptr, ptr %s.addr, align 8
  %6 = load ptr, ptr %d.addr, align 8
  %port_no = getelementptr inbounds %struct.AHCIDevice, ptr %6, i32 0, i32 2
  %7 = load i32, ptr %port_no, align 8
  %8 = load i32, ptr %irqbit.addr, align 4
  %idxprom = zext i32 %8 to i64
  %arrayidx = getelementptr [32 x ptr], ptr @AHCIPortIRQ_lookup, i64 0, i64 %idxprom
  %9 = load ptr, ptr %arrayidx, align 8
  %10 = load i32, ptr %irq, align 4
  %11 = load ptr, ptr %d.addr, align 8
  %port_regs1 = getelementptr inbounds %struct.AHCIDevice, ptr %11, i32 0, i32 5
  %irq_stat2 = getelementptr inbounds %struct.AHCIPortRegs, ptr %port_regs1, i32 0, i32 4
  %12 = load i32, ptr %irq_stat2, align 4
  %13 = load i32, ptr %irqstat, align 4
  %14 = load i32, ptr %irqstat, align 4
  %15 = load ptr, ptr %d.addr, align 8
  %port_regs3 = getelementptr inbounds %struct.AHCIDevice, ptr %15, i32 0, i32 5
  %irq_mask = getelementptr inbounds %struct.AHCIPortRegs, ptr %port_regs3, i32 0, i32 5
  %16 = load i32, ptr %irq_mask, align 4
  %and = and i32 %14, %16
  call void @trace_ahci_trigger_irq(ptr noundef %5, i32 noundef %7, ptr noundef %9, i32 noundef %10, i32 noundef %12, i32 noundef %13, i32 noundef %and)
  %17 = load i32, ptr %irqstat, align 4
  %18 = load ptr, ptr %d.addr, align 8
  %port_regs4 = getelementptr inbounds %struct.AHCIDevice, ptr %18, i32 0, i32 5
  %irq_stat5 = getelementptr inbounds %struct.AHCIPortRegs, ptr %port_regs4, i32 0, i32 4
  store i32 %17, ptr %irq_stat5, align 4
  %19 = load ptr, ptr %s.addr, align 8
  call void @ahci_check_irq(ptr noundef %19)
  ret void
}