; Function Attrs: nounwind sspstrong uwtable
define internal fastcc void @ahci_trigger_irq(ptr noundef %s, ptr noundef captures(none) %d, i32 noundef range(i32 0, 31) %irqbit) unnamed_addr #0 {
entry:
  %_now.i.i = alloca %struct.timeval, align 8
  %shl = shl nuw nsw i32 1, %irqbit
  %irq_stat = getelementptr inbounds nuw i8, ptr %d, i64 2388
  %0 = load i32, ptr %irq_stat, align 4
  %or = or i32 %0, %shl
  %port_no = getelementptr inbounds nuw i8, ptr %d, i64 2360
  %1 = load i32, ptr %port_no, align 8
  %idxprom = zext nneg i32 %irqbit to i64
  %arrayidx = getelementptr [32 x ptr], ptr @AHCIPortIRQ_lookup, i64 0, i64 %idxprom
  %2 = load ptr, ptr %arrayidx, align 8
  %irq_mask = getelementptr inbounds nuw i8, ptr %d, i64 2392
  %3 = load i32, ptr %irq_mask, align 4
  %and = and i32 %3, %or
  call void @llvm.lifetime.start.p0(i64 16, ptr nonnull %_now.i.i)
  %4 = load i32, ptr @trace_events_enabled_count, align 4
  %tobool.i.i = icmp ne i32 %4, 0
  %5 = load i16, ptr @_TRACE_AHCI_TRIGGER_IRQ_DSTATE, align 2
  %tobool4.i.i = icmp ne i16 %5, 0
  %or.cond.i.i = select i1 %tobool.i.i, i1 %tobool4.i.i, i1 false
  br i1 %or.cond.i.i, label %land.lhs.true5.i.i, label %trace_ahci_trigger_irq.exit

land.lhs.true5.i.i:                               ; preds = %entry
  %6 = load i32, ptr @qemu_loglevel, align 4
  %and.i.i.i = and i32 %6, 32768
  %cmp.i.not.i.i = icmp eq i32 %and.i.i.i, 0
  br i1 %cmp.i.not.i.i, label %trace_ahci_trigger_irq.exit, label %if.then.i.i

if.then.i.i:                                      ; preds = %land.lhs.true5.i.i
  %7 = load i8, ptr @message_with_timestamp, align 1
  %tobool7.i.i = trunc i8 %7 to i1
  br i1 %tobool7.i.i, label %if.then8.i.i, label %if.else.i.i

if.then8.i.i:                                     ; preds = %if.then.i.i
  %call9.i.i = call i32 @gettimeofday(ptr noundef nonnull %_now.i.i, ptr noundef null) #12
  %call10.i.i = tail call i32 @qemu_get_thread_id() #12
  %8 = load i64, ptr %_now.i.i, align 8
  %tv_usec.i.i = getelementptr inbounds nuw i8, ptr %_now.i.i, i64 8
  %9 = load i64, ptr %tv_usec.i.i, align 8
  tail call void (ptr, ...) @qemu_log(ptr noundef nonnull @.str.84, i32 noundef %call10.i.i, i64 noundef %8, i64 noundef %9, ptr noundef %s, i32 noundef %1, ptr noundef %2, i32 noundef range(i32 1, 1073741825) %shl, i32 noundef %0, i32 noundef range(i32 1, 0) %or, i32 noundef %and) #12
  br label %trace_ahci_trigger_irq.exit

if.else.i.i:                                      ; preds = %if.then.i.i
  tail call void (ptr, ...) @qemu_log(ptr noundef nonnull @.str.85, ptr noundef %s, i32 noundef %1, ptr noundef %2, i32 noundef range(i32 1, 1073741825) %shl, i32 noundef %0, i32 noundef range(i32 1, 0) %or, i32 noundef %and) #12
  br label %trace_ahci_trigger_irq.exit

trace_ahci_trigger_irq.exit:                      ; preds = %entry, %land.lhs.true5.i.i, %if.then8.i.i, %if.else.i.i
  call void @llvm.lifetime.end.p0(i64 16, ptr nonnull %_now.i.i)
  store i32 %or, ptr %irq_stat, align 4
  tail call fastcc void @ahci_check_irq(ptr noundef %s)
  ret void
}